; Function Attrs: mustprogress uwtable
define void @_ZN5osgeo4proj6common5AngleC2ERKS2_(ptr noundef nonnull align 8 dereferenceable(24) %0, ptr noundef nonnull readonly align 8 captures(none) dereferenceable(24) %1) unnamed_addr #0 align 2 personality ptr @__gxx_personality_v0 {
  tail call void @_ZN5osgeo4proj4util10BaseObjectC2Ev(ptr noundef nonnull align 8 dereferenceable(24) %0)
  store ptr getelementptr inbounds nuw inrange(-16, 16) (i8, ptr @_ZTVN5osgeo4proj6common7MeasureE, i64 16), ptr %0, align 8, !tbaa !3
  %3 = getelementptr inbounds nuw i8, ptr %1, i64 16
  %4 = load ptr, ptr %3, align 8, !tbaa !75
  tail call void @llvm.experimental.noalias.scope.decl(metadata !95)
  %5 = invoke noalias noundef nonnull dereferenceable(32) ptr @_Znwm(i64 noundef 32) #38
          to label %.noexc.i unwind label %11

.noexc.i:                                         ; preds = %2
  %6 = load double, ptr %4, align 8, !tbaa !58, !noalias !95
  store double %6, ptr %5, align 8, !tbaa !58, !noalias !95
  %7 = getelementptr inbounds nuw i8, ptr %5, i64 8
  %8 = getelementptr inbounds nuw i8, ptr %4, i64 8
  invoke void @_ZN5osgeo4proj6common13UnitOfMeasureC1ERKS2_(ptr noundef nonnull align 8 dereferenceable(24) %7, ptr noundef nonnull align 8 dereferenceable(24) %8)
          to label %_ZN5osgeo4proj6common7MeasureC2ERKS2_.exit unwind label %9, !noalias !95

9:                                                ; preds = %.noexc.i
  %10 = landingpad { ptr, i32 }
          cleanup
  tail call void @_ZdlPvm(ptr noundef nonnull %5, i64 noundef 32) #39, !noalias !95
  br label %.body.i

11:                                               ; preds = %2
  %12 = landingpad { ptr, i32 }
          cleanup
  br label %.body.i

.body.i:                                          ; preds = %11, %9
  %eh.lpad-body.i = phi { ptr, i32 } [ %12, %11 ], [ %10, %9 ]
  tail call void @_ZN5osgeo4proj4util10BaseObjectD2Ev(ptr noundef nonnull align 8 dereferenceable(24) %0) #40
  resume { ptr, i32 } %eh.lpad-body.i

_ZN5osgeo4proj6common7MeasureC2ERKS2_.exit:       ; preds = %.noexc.i
  %13 = getelementptr inbounds nuw i8, ptr %0, i64 16
  store ptr %5, ptr %13, align 8, !tbaa !75, !alias.scope !95
  store ptr getelementptr inbounds nuw inrange(-16, 16) (i8, ptr @_ZTVN5osgeo4proj6common5AngleE, i64 16), ptr %0, align 8, !tbaa !3
  ret void
}